target datalayout = "e-m:e-p270:32:32-p271:32:32-p272:64:64-i64:64-i128:128-f80:128-n8:16:32:64-S128"
target triple = "x86_64-pc-linux-gnu"

%struct.pmix_list_t = type { %struct.pmix_object_t, %struct.pmix_list_item_t, i64 }
%struct.pmix_object_t = type { %union.pthread_mutex_t, ptr, i32, %struct.pmix_tma }
%union.pthread_mutex_t = type { %struct.__pthread_mutex_s }
%struct.__pthread_mutex_s = type { i32, i32, i32, i32, i32, i16, i16, %struct.__pthread_internal_list }
%struct.__pthread_internal_list = type { ptr, ptr }
%struct.pmix_tma = type { ptr, ptr, ptr, ptr, ptr, ptr, ptr, ptr }
%struct.pmix_list_item_t = type { %struct.pmix_object_t, ptr, ptr, i32 }
%struct.prte_node_t = type { %struct.pmix_list_item_t, i32, ptr, ptr, ptr, ptr, ptr, ptr, i16, ptr, i16, i8, i32, i32, i32, i32, ptr, i8, %struct.pmix_list_t }
%struct.prte_topology_t = type { %struct.pmix_object_t, i32, ptr, ptr }

@prte_set_slots = external global ptr, align 8
@.str = private unnamed_addr constant [6 x i8] c"cores\00", align 1
@.str.1 = private unnamed_addr constant [8 x i8] c"sockets\00", align 1
@.str.2 = private unnamed_addr constant [6 x i8] c"numas\00", align 1
@.str.3 = private unnamed_addr constant [10 x i8] c"hwthreads\00", align 1

; Function Attrs: nounwind uwtable
define void @prte_plm_base_set_slots(ptr noundef %0) #0 {
  %2 = alloca ptr, align 8
  store ptr %0, ptr %2, align 8, !tbaa !3
  %3 = load ptr, ptr @prte_set_slots, align 8, !tbaa !7
  %4 = load ptr, ptr @prte_set_slots, align 8, !tbaa !7
  %5 = call i64 @strlen(ptr noundef %4) #12
  %6 = call i32 @strncmp(ptr noundef %3, ptr noundef @.str, i64 noundef %5) #12
  %7 = icmp eq i32 0, %6
  br i1 %7, label %8, label %30

8:                                                ; preds = %1
  %9 = load ptr, ptr %2, align 8, !tbaa !3
  %10 = getelementptr inbounds nuw %struct.prte_node_t, ptr %9, i32 0, i32 16
  %11 = load ptr, ptr %10, align 8, !tbaa !9
  %12 = icmp ne ptr null, %11
  br i1 %12, label %13, label %29

13:                                               ; preds = %8
  %14 = load ptr, ptr %2, align 8, !tbaa !3
  %15 = getelementptr inbounds nuw %struct.prte_node_t, ptr %14, i32 0, i32 16
  %16 = load ptr, ptr %15, align 8, !tbaa !9
  %17 = getelementptr inbounds nuw %struct.prte_topology_t, ptr %16, i32 0, i32 2
  %18 = load ptr, ptr %17, align 8, !tbaa !24
  %19 = icmp ne ptr null, %18
  br i1 %19, label %20, label %29

20:                                               ; preds = %13
  %21 = load ptr, ptr %2, align 8, !tbaa !3
  %22 = getelementptr inbounds nuw %struct.prte_node_t, ptr %21, i32 0, i32 16
  %23 = load ptr, ptr %22, align 8, !tbaa !9
  %24 = getelementptr inbounds nuw %struct.prte_topology_t, ptr %23, i32 0, i32 2
  %25 = load ptr, ptr %24, align 8, !tbaa !24
  %26 = call i32 @prte_hwloc_base_get_nbobjs_by_type(ptr noundef %25, i32 noundef 2)
  %27 = load ptr, ptr %2, align 8, !tbaa !3
  %28 = getelementptr inbounds nuw %struct.prte_node_t, ptr %27, i32 0, i32 12
  store i32 %26, ptr %28, align 4, !tbaa !27
  br label %29

29:                                               ; preds = %20, %13, %8
  br label %137

30:                                               ; preds = %1
  %31 = load ptr, ptr @prte_set_slots, align 8, !tbaa !7
  %32 = load ptr, ptr @prte_set_slots, align 8, !tbaa !7
  %33 = call i64 @strlen(ptr noundef %32) #12
  %34 = call i32 @strncmp(ptr noundef %31, ptr noundef @.str.1, i64 noundef %33) #12
  %35 = icmp eq i32 0, %34
  br i1 %35, label %36, label %72

36:                                               ; preds = %30
  %37 = load ptr, ptr %2, align 8, !tbaa !3
  %38 = getelementptr inbounds nuw %struct.prte_node_t, ptr %37, i32 0, i32 16
  %39 = load ptr, ptr %38, align 8, !tbaa !9
  %40 = icmp ne ptr null, %39
  br i1 %40, label %41, label %71

41:                                               ; preds = %36
  %42 = load ptr, ptr %2, align 8, !tbaa !3
  %43 = getelementptr inbounds nuw %struct.prte_node_t, ptr %42, i32 0, i32 16
  %44 = load ptr, ptr %43, align 8, !tbaa !9
  %45 = getelementptr inbounds nuw %struct.prte_topology_t, ptr %44, i32 0, i32 2
  %46 = load ptr, ptr %45, align 8, !tbaa !24
  %47 = icmp ne ptr null, %46
  br i1 %47, label %48, label %71

48:                                               ; preds = %41
  %49 = load ptr, ptr %2, align 8, !tbaa !3
  %50 = getelementptr inbounds nuw %struct.prte_node_t, ptr %49, i32 0, i32 16
  %51 = load ptr, ptr %50, align 8, !tbaa !9
  %52 = getelementptr inbounds nuw %struct.prte_topology_t, ptr %51, i32 0, i32 2
  %53 = load ptr, ptr %52, align 8, !tbaa !24
  %54 = call i32 @prte_hwloc_base_get_nbobjs_by_type(ptr noundef %53, i32 noundef 1)
  %55 = load ptr, ptr %2, align 8, !tbaa !3
  %56 = getelementptr inbounds nuw %struct.prte_node_t, ptr %55, i32 0, i32 12
  store i32 %54, ptr %56, align 4, !tbaa !27
  %57 = load ptr, ptr %2, align 8, !tbaa !3
  %58 = getelementptr inbounds nuw %struct.prte_node_t, ptr %57, i32 0, i32 12
  %59 = load i32, ptr %58, align 4, !tbaa !27
  %60 = icmp eq i32 0, %59
  br i1 %60, label %61, label %70

61:                                               ; preds = %48
  %62 = load ptr, ptr %2, align 8, !tbaa !3
  %63 = getelementptr inbounds nuw %struct.prte_node_t, ptr %62, i32 0, i32 16
  %64 = load ptr, ptr %63, align 8, !tbaa !9
  %65 = getelementptr inbounds nuw %struct.prte_topology_t, ptr %64, i32 0, i32 2
  %66 = load ptr, ptr %65, align 8, !tbaa !24
  %67 = call i32 @prte_hwloc_base_get_nbobjs_by_type(ptr noundef %66, i32 noundef 13)
  %68 = load ptr, ptr %2, align 8, !tbaa !3
  %69 = getelementptr inbounds nuw %struct.prte_node_t, ptr %68, i32 0, i32 12
  store i32 %67, ptr %69, align 4, !tbaa !27
  br label %70

70:                                               ; preds = %61, %48
  br label %71

71:                                               ; preds = %70, %41, %36
  br label %136

72:                                               ; preds = %30
  %73 = load ptr, ptr @prte_set_slots, align 8, !tbaa !7
  %74 = load ptr, ptr @prte_set_slots, align 8, !tbaa !7
  %75 = call i64 @strlen(ptr noundef %74) #12
  %76 = call i32 @strncmp(ptr noundef %73, ptr noundef @.str.2, i64 noundef %75) #12
  %77 = icmp eq i32 0, %76
  br i1 %77, label %78, label %100

78:                                               ; preds = %72
  %79 = load ptr, ptr %2, align 8, !tbaa !3
  %80 = getelementptr inbounds nuw %struct.prte_node_t, ptr %79, i32 0, i32 16
  %81 = load ptr, ptr %80, align 8, !tbaa !9
  %82 = icmp ne ptr null, %81
  br i1 %82, label %83, label %99

83:                                               ; preds = %78
  %84 = load ptr, ptr %2, align 8, !tbaa !3
  %85 = getelementptr inbounds nuw %struct.prte_node_t, ptr %84, i32 0, i32 16
  %86 = load ptr, ptr %85, align 8, !tbaa !9
  %87 = getelementptr inbounds nuw %struct.prte_topology_t, ptr %86, i32 0, i32 2
  %88 = load ptr, ptr %87, align 8, !tbaa !24
  %89 = icmp ne ptr null, %88
  br i1 %89, label %90, label %99

90:                                               ; preds = %83
  %91 = load ptr, ptr %2, align 8, !tbaa !3
  %92 = getelementptr inbounds nuw %struct.prte_node_t, ptr %91, i32 0, i32 16
  %93 = load ptr, ptr %92, align 8, !tbaa !9
  %94 = getelementptr inbounds nuw %struct.prte_topology_t, ptr %93, i32 0, i32 2
  %95 = load ptr, ptr %94, align 8, !tbaa !24
  %96 = call i32 @prte_hwloc_base_get_nbobjs_by_type(ptr noundef %95, i32 noundef 13)
  %97 = load ptr, ptr %2, align 8, !tbaa !3
  %98 = getelementptr inbounds nuw %struct.prte_node_t, ptr %97, i32 0, i32 12
  store i32 %96, ptr %98, align 4, !tbaa !27
  br label %99

99:                                               ; preds = %90, %83, %78
  br label %135

100:                                              ; preds = %72
  %101 = load ptr, ptr @prte_set_slots, align 8, !tbaa !7
  %102 = load ptr, ptr @prte_set_slots, align 8, !tbaa !7
  %103 = call i64 @strlen(ptr noundef %102) #12
  %104 = call i32 @strncmp(ptr noundef %101, ptr noundef @.str.3, i64 noundef %103) #12
  %105 = icmp eq i32 0, %104
  br i1 %105, label %106, label %128

106:                                              ; preds = %100
  %107 = load ptr, ptr %2, align 8, !tbaa !3
  %108 = getelementptr inbounds nuw %struct.prte_node_t, ptr %107, i32 0, i32 16
  %109 = load ptr, ptr %108, align 8, !tbaa !9
  %110 = icmp ne ptr null, %109
  br i1 %110, label %111, label %127

111:                                              ; preds = %106
  %112 = load ptr, ptr %2, align 8, !tbaa !3
  %113 = getelementptr inbounds nuw %struct.prte_node_t, ptr %112, i32 0, i32 16
  %114 = load ptr, ptr %113, align 8, !tbaa !9
  %115 = getelementptr inbounds nuw %struct.prte_topology_t, ptr %114, i32 0, i32 2
  %116 = load ptr, ptr %115, align 8, !tbaa !24
  %117 = icmp ne ptr null, %116
  br i1 %117, label %118, label %127

118:                                              ; preds = %111
  %119 = load ptr, ptr %2, align 8, !tbaa !3
  %120 = getelementptr inbounds nuw %struct.prte_node_t, ptr %119, i32 0, i32 16
  %121 = load ptr, ptr %120, align 8, !tbaa !9
  %122 = getelementptr inbounds nuw %struct.prte_topology_t, ptr %121, i32 0, i32 2
  %123 = load ptr, ptr %122, align 8, !tbaa !24
  %124 = call i32 @prte_hwloc_base_get_nbobjs_by_type(ptr noundef %123, i32 noundef 3)
  %125 = load ptr, ptr %2, align 8, !tbaa !3
  %126 = getelementptr inbounds nuw %struct.prte_node_t, ptr %125, i32 0, i32 12
  store i32 %124, ptr %126, align 4, !tbaa !27
  br label %127

127:                                              ; preds = %118, %111, %106
  br label %134

128:                                              ; preds = %100
  %129 = load ptr, ptr @prte_set_slots, align 8, !tbaa !7
  %130 = call i64 @strtol(ptr noundef %129, ptr noundef null, i32 noundef 10) #13
  %131 = trunc i64 %130 to i32
  %132 = load ptr, ptr %2, align 8, !tbaa !3
  %133 = getelementptr inbounds nuw %struct.prte_node_t, ptr %132, i32 0, i32 12
  store i32 %131, ptr %133, align 4, !tbaa !27
  br label %134

134:                                              ; preds = %128, %127
  br label %135

135:                                              ; preds = %134, %99
  br label %136

136:                                              ; preds = %135, %71
  br label %137

137:                                              ; preds = %136, %29
  %138 = load ptr, ptr %2, align 8, !tbaa !3
  %139 = getelementptr inbounds nuw %struct.prte_node_t, ptr %138, i32 0, i32 17
  %140 = load i8, ptr %139, align 8, !tbaa !28
  %141 = zext i8 %140 to i32
  %142 = or i32 %141, 16
  %143 = trunc i32 %142 to i8
  store i8 %143, ptr %139, align 8, !tbaa !28
  ret void
}