; Function Attrs: nounwind uwtable
define void @prte_plm_base_set_slots(ptr noundef captures(none) %0) local_unnamed_addr #0 {
  %2 = load ptr, ptr @prte_set_slots, align 8, !tbaa !3
  %3 = tail call i64 @strlen(ptr noundef nonnull dereferenceable(1) %2) #16
  %4 = tail call i32 @strncmp(ptr noundef nonnull %2, ptr noundef nonnull @.str, i64 noundef %3) #16
  %5 = icmp eq i32 %4, 0
  br i1 %5, label %6, label %15

6:                                                ; preds = %1
  %7 = getelementptr inbounds nuw i8, ptr %0, i64 240
  %8 = load ptr, ptr %7, align 8, !tbaa !8
  %.not33 = icmp eq ptr %8, null
  br i1 %.not33, label %61, label %9

9:                                                ; preds = %6
  %10 = getelementptr inbounds nuw i8, ptr %8, i64 128
  %11 = load ptr, ptr %10, align 8, !tbaa !23
  %.not34 = icmp eq ptr %11, null
  br i1 %.not34, label %61, label %12

12:                                               ; preds = %9
  %13 = tail call i32 @prte_hwloc_base_get_nbobjs_by_type(ptr noundef nonnull %11, i32 noundef 2) #17
  %14 = getelementptr inbounds nuw i8, ptr %0, i64 220
  store i32 %13, ptr %14, align 4, !tbaa !26
  br label %61

15:                                               ; preds = %1
  %16 = tail call i32 @strncmp(ptr noundef nonnull %2, ptr noundef nonnull @.str.1, i64 noundef %3) #16
  %17 = icmp eq i32 %16, 0
  br i1 %17, label %18, label %33

18:                                               ; preds = %15
  %19 = getelementptr inbounds nuw i8, ptr %0, i64 240
  %20 = load ptr, ptr %19, align 8, !tbaa !8
  %.not31 = icmp eq ptr %20, null
  br i1 %.not31, label %61, label %21

21:                                               ; preds = %18
  %22 = getelementptr inbounds nuw i8, ptr %20, i64 128
  %23 = load ptr, ptr %22, align 8, !tbaa !23
  %.not32 = icmp eq ptr %23, null
  br i1 %.not32, label %61, label %24

24:                                               ; preds = %21
  %25 = tail call i32 @prte_hwloc_base_get_nbobjs_by_type(ptr noundef nonnull %23, i32 noundef 1) #17
  %26 = getelementptr inbounds nuw i8, ptr %0, i64 220
  store i32 %25, ptr %26, align 4, !tbaa !26
  %27 = icmp eq i32 %25, 0
  br i1 %27, label %28, label %61

28:                                               ; preds = %24
  %29 = load ptr, ptr %19, align 8, !tbaa !8
  %30 = getelementptr inbounds nuw i8, ptr %29, i64 128
  %31 = load ptr, ptr %30, align 8, !tbaa !23
  %32 = tail call i32 @prte_hwloc_base_get_nbobjs_by_type(ptr noundef %31, i32 noundef 13) #17
  store i32 %32, ptr %26, align 4, !tbaa !26
  br label %61

33:                                               ; preds = %15
  %34 = tail call i32 @strncmp(ptr noundef nonnull %2, ptr noundef nonnull @.str.2, i64 noundef %3) #16
  %35 = icmp eq i32 %34, 0
  br i1 %35, label %36, label %45

36:                                               ; preds = %33
  %37 = getelementptr inbounds nuw i8, ptr %0, i64 240
  %38 = load ptr, ptr %37, align 8, !tbaa !8
  %.not29 = icmp eq ptr %38, null
  br i1 %.not29, label %61, label %39

39:                                               ; preds = %36
  %40 = getelementptr inbounds nuw i8, ptr %38, i64 128
  %41 = load ptr, ptr %40, align 8, !tbaa !23
  %.not30 = icmp eq ptr %41, null
  br i1 %.not30, label %61, label %42

42:                                               ; preds = %39
  %43 = tail call i32 @prte_hwloc_base_get_nbobjs_by_type(ptr noundef nonnull %41, i32 noundef 13) #17
  %44 = getelementptr inbounds nuw i8, ptr %0, i64 220
  store i32 %43, ptr %44, align 4, !tbaa !26
  br label %61

45:                                               ; preds = %33
  %46 = tail call i32 @strncmp(ptr noundef nonnull %2, ptr noundef nonnull @.str.3, i64 noundef %3) #16
  %47 = icmp eq i32 %46, 0
  br i1 %47, label %48, label %57

48:                                               ; preds = %45
  %49 = getelementptr inbounds nuw i8, ptr %0, i64 240
  %50 = load ptr, ptr %49, align 8, !tbaa !8
  %.not = icmp eq ptr %50, null
  br i1 %.not, label %61, label %51

51:                                               ; preds = %48
  %52 = getelementptr inbounds nuw i8, ptr %50, i64 128
  %53 = load ptr, ptr %52, align 8, !tbaa !23
  %.not28 = icmp eq ptr %53, null
  br i1 %.not28, label %61, label %54

54:                                               ; preds = %51
  %55 = tail call i32 @prte_hwloc_base_get_nbobjs_by_type(ptr noundef nonnull %53, i32 noundef 3) #17
  %56 = getelementptr inbounds nuw i8, ptr %0, i64 220
  store i32 %55, ptr %56, align 4, !tbaa !26
  br label %61

57:                                               ; preds = %45
  %58 = tail call i64 @strtol(ptr noundef nonnull captures(none) %2, ptr noundef null, i32 noundef 10) #17
  %59 = trunc i64 %58 to i32
  %60 = getelementptr inbounds nuw i8, ptr %0, i64 220
  store i32 %59, ptr %60, align 4, !tbaa !26
  br label %61

61:                                               ; preds = %24, %28, %21, %18, %57, %54, %51, %48, %36, %39, %42, %6, %9, %12
  %62 = getelementptr inbounds nuw i8, ptr %0, i64 248
  %63 = load i8, ptr %62, align 8, !tbaa !27
  %64 = or i8 %63, 16
  store i8 %64, ptr %62, align 8, !tbaa !27
  ret void
}